target datalayout = "e-m:e-p270:32:32-p271:32:32-p272:64:64-i64:64-i128:128-f80:128-n8:16:32:64-S128"
target triple = "x86_64-pc-linux-gnu"

%union.pthread_mutex_t = type { %struct.__pthread_mutex_s }
%struct.__pthread_mutex_s = type { i32, i32, i32, i32, i32, i16, i16, %struct.__pthread_internal_list }
%struct.__pthread_internal_list = type { ptr, ptr }
%struct.pmix_tma = type { ptr, ptr, ptr, ptr, ptr, ptr, ptr, ptr }
%struct.pmix_object_t = type { %union.pthread_mutex_t, ptr, i32, %struct.pmix_tma }
%struct.prte_odls_launch_local_t = type { %struct.pmix_object_t, ptr, [256 x i8], ptr, i32 }

; Function Attrs: nounwind uwtable
define internal void @launch_local_const(ptr noundef %0) #0 {
  %2 = alloca ptr, align 8
  store ptr %0, ptr %2, align 8, !tbaa !36
  %3 = call ptr @prte_event_alloc()
  %4 = load ptr, ptr %2, align 8, !tbaa !36
  %5 = getelementptr inbounds nuw %struct.prte_odls_launch_local_t, ptr %4, i32 0, i32 1
  store ptr %3, ptr %5, align 8, !tbaa !83
  %6 = load ptr, ptr %2, align 8, !tbaa !36
  %7 = getelementptr inbounds nuw %struct.prte_odls_launch_local_t, ptr %6, i32 0, i32 2
  %8 = getelementptr inbounds [256 x i8], ptr %7, i64 0, i64 0
  call void @PMIx_Load_nspace(ptr noundef %8, ptr noundef null)
  %9 = load ptr, ptr %2, align 8, !tbaa !36
  %10 = getelementptr inbounds nuw %struct.prte_odls_launch_local_t, ptr %9, i32 0, i32 3
  store ptr null, ptr %10, align 8, !tbaa !86
  %11 = load ptr, ptr %2, align 8, !tbaa !36
  %12 = getelementptr inbounds nuw %struct.prte_odls_launch_local_t, ptr %11, i32 0, i32 4
  store i32 0, ptr %12, align 8, !tbaa !87
  ret void
}