; Function Attrs: nounwind uwtable
define internal void @launch_local_const(ptr noundef initializes((120, 128)) %0) #0 {
  %2 = tail call ptr @prte_event_alloc() #13
  %3 = getelementptr inbounds nuw i8, ptr %0, i64 120
  store ptr %2, ptr %3, align 8, !tbaa !84
  %4 = getelementptr inbounds nuw i8, ptr %0, i64 128
  tail call void @PMIx_Load_nspace(ptr noundef nonnull %4, ptr noundef null) #13
  %5 = getelementptr inbounds nuw i8, ptr %0, i64 384
  store ptr null, ptr %5, align 8, !tbaa !87
  %6 = getelementptr inbounds nuw i8, ptr %0, i64 392
  store i32 0, ptr %6, align 8, !tbaa !88
  ret void
}